target datalayout = "e-m:e-p270:32:32-p271:32:32-p272:64:64-i64:64-i128:128-f80:128-n8:16:32:64-S128"
target triple = "x86_64-pc-linux-gnu"

%struct.exr_attr_box2i_t = type { %struct.exr_attr_v2i_t, %struct.exr_attr_v2i_t }
%struct.exr_attr_v2i_t = type { i32, i32 }
%struct._priv_exr_context_t = type { i8, i8, i8, i8, i8, i8, i8, i8, %struct.exr_attr_string_t, %struct.exr_attr_string_t, ptr, ptr, ptr, ptr, ptr, ptr, ptr, ptr, i32, i32, i32, i32, i32, float, ptr, ptr, ptr, i64, ptr, ptr, i64, i32, i32, i32, i32, %struct._priv_exr_part_t, ptr, ptr, %struct.exr_attribute_list, %union.pthread_mutex_t, i8, i8, [2 x i8], i32 }
%struct.exr_attr_string_t = type { i32, i32, ptr }
%struct._priv_exr_part_t = type { i32, i32, %struct.exr_attribute_list, ptr, ptr, ptr, ptr, ptr, ptr, ptr, ptr, ptr, ptr, ptr, ptr, ptr, ptr, %struct.exr_attr_box2i_t, %struct.exr_attr_box2i_t, i32, i32, i32, float, i32, i32, ptr, ptr, ptr, ptr, i64, i16, i16, i32, i64, i64 }
%struct.exr_attribute_list = type { i32, i32, ptr, ptr }
%union.pthread_mutex_t = type { %struct.__pthread_mutex_s }
%struct.__pthread_mutex_s = type { i32, i32, i32, i32, i32, i16, i16, %struct.__pthread_internal_list }
%struct.__pthread_internal_list = type { ptr, ptr }
%struct.exr_attribute_t = type { ptr, ptr, i8, i8, [2 x i8], i32, %union.anon }
%union.anon = type { double }

@.str.48 = private unnamed_addr constant [46 x i8] c"Multipart files cannot have the tiled bit set\00", align 1
@.str.49 = private unnamed_addr constant [82 x i8] c"attribute 'type': Single part tiled flag set but not marked as tiled storage type\00", align 1
@.str.50 = private unnamed_addr constant [14 x i8] c"scanlineimage\00", align 1
@.str.51 = private unnamed_addr constant [11 x i8] c"tiledimage\00", align 1
@.str.52 = private unnamed_addr constant [13 x i8] c"deepscanline\00", align 1
@.str.53 = private unnamed_addr constant [9 x i8] c"deeptile\00", align 1
@.str.54 = private unnamed_addr constant [76 x i8] c"attribute 'type': Type should be '%s' but set to '%s', believing file flags\00", align 1
@.str.55 = private unnamed_addr constant [80 x i8] c"attribute 'type': Mismatch between file flags and type attribute, unable to fix\00", align 1
@.str.56 = private unnamed_addr constant [47 x i8] c"Unable to determine data storage type for part\00", align 1

; Function Attrs: nounwind uwtable
define internal i32 @validate_part_type(ptr noundef %0, ptr noundef %1) #0 {
  %3 = alloca i32, align 4
  %4 = alloca ptr, align 8
  %5 = alloca ptr, align 8
  %6 = alloca ptr, align 8
  %7 = alloca i32, align 4
  %8 = alloca i32, align 4
  store ptr %0, ptr %4, align 8, !tbaa !3
  store ptr %1, ptr %5, align 8, !tbaa !8
  %9 = load ptr, ptr %5, align 8, !tbaa !8
  %10 = getelementptr inbounds nuw %struct._priv_exr_part_t, ptr %9, i32 0, i32 13
  %11 = load ptr, ptr %10, align 8, !tbaa !45
  %12 = icmp ne ptr %11, null
  br i1 %12, label %13, label %145

13:                                               ; preds = %2
  call void @llvm.lifetime.start.p0(i64 8, ptr %6) #7
  store ptr null, ptr %6, align 8, !tbaa !68
  call void @llvm.lifetime.start.p0(i64 4, ptr %7) #7
  %14 = load ptr, ptr %4, align 8, !tbaa !3
  %15 = getelementptr inbounds nuw %struct._priv_exr_context_t, ptr %14, i32 0, i32 3
  %16 = load i8, ptr %15, align 1, !tbaa !69
  %17 = icmp ne i8 %16, 0
  br i1 %17, label %18, label %55

18:                                               ; preds = %13
  %19 = load ptr, ptr %4, align 8, !tbaa !3
  %20 = getelementptr inbounds nuw %struct._priv_exr_context_t, ptr %19, i32 0, i32 5
  %21 = load i8, ptr %20, align 1, !tbaa !42
  %22 = zext i8 %21 to i32
  %23 = icmp ne i32 %22, 0
  br i1 %23, label %29, label %24

24:                                               ; preds = %18
  %25 = load ptr, ptr %4, align 8, !tbaa !3
  %26 = getelementptr inbounds nuw %struct._priv_exr_context_t, ptr %25, i32 0, i32 34
  %27 = load i32, ptr %26, align 4, !tbaa !70
  %28 = icmp sgt i32 %27, 1
  br i1 %28, label %29, label %35

29:                                               ; preds = %24, %18
  %30 = load ptr, ptr %4, align 8, !tbaa !3
  %31 = getelementptr inbounds nuw %struct._priv_exr_context_t, ptr %30, i32 0, i32 14
  %32 = load ptr, ptr %31, align 8, !tbaa !29
  %33 = load ptr, ptr %4, align 8, !tbaa !3
  %34 = call i32 (ptr, i32, ptr, ...) %32(ptr noundef %33, i32 noundef 14, ptr noundef @.str.48)
  store i32 %34, ptr %3, align 4
  store i32 1, ptr %8, align 4
  br label %142

35:                                               ; preds = %24
  %36 = load ptr, ptr %5, align 8, !tbaa !8
  %37 = getelementptr inbounds nuw %struct._priv_exr_part_t, ptr %36, i32 0, i32 1
  %38 = load i32, ptr %37, align 4, !tbaa !71
  %39 = icmp ne i32 %38, 1
  br i1 %39, label %40, label %54

40:                                               ; preds = %35
  %41 = load ptr, ptr %5, align 8, !tbaa !8
  %42 = getelementptr inbounds nuw %struct._priv_exr_part_t, ptr %41, i32 0, i32 1
  store i32 1, ptr %42, align 4, !tbaa !71
  %43 = load ptr, ptr %4, align 8, !tbaa !3
  %44 = getelementptr inbounds nuw %struct._priv_exr_context_t, ptr %43, i32 0, i32 6
  %45 = load i8, ptr %44, align 2, !tbaa !10
  %46 = icmp ne i8 %45, 0
  br i1 %46, label %47, label %53

47:                                               ; preds = %40
  %48 = load ptr, ptr %4, align 8, !tbaa !3
  %49 = getelementptr inbounds nuw %struct._priv_exr_context_t, ptr %48, i32 0, i32 14
  %50 = load ptr, ptr %49, align 8, !tbaa !29
  %51 = load ptr, ptr %4, align 8, !tbaa !3
  %52 = call i32 (ptr, i32, ptr, ...) %50(ptr noundef %51, i32 noundef 14, ptr noundef @.str.49)
  store i32 %52, ptr %3, align 4
  store i32 1, ptr %8, align 4
  br label %142

53:                                               ; preds = %40
  br label %54

54:                                               ; preds = %53, %35
  br label %55

55:                                               ; preds = %54, %13
  %56 = load ptr, ptr %5, align 8, !tbaa !8
  %57 = getelementptr inbounds nuw %struct._priv_exr_part_t, ptr %56, i32 0, i32 1
  %58 = load i32, ptr %57, align 4, !tbaa !71
  %59 = icmp eq i32 %58, 0
  br i1 %59, label %60, label %61

60:                                               ; preds = %55
  store ptr @.str.50, ptr %6, align 8, !tbaa !68
  br label %82

61:                                               ; preds = %55
  %62 = load ptr, ptr %5, align 8, !tbaa !8
  %63 = getelementptr inbounds nuw %struct._priv_exr_part_t, ptr %62, i32 0, i32 1
  %64 = load i32, ptr %63, align 4, !tbaa !71
  %65 = icmp eq i32 %64, 1
  br i1 %65, label %66, label %67

66:                                               ; preds = %61
  store ptr @.str.51, ptr %6, align 8, !tbaa !68
  br label %81

67:                                               ; preds = %61
  %68 = load ptr, ptr %5, align 8, !tbaa !8
  %69 = getelementptr inbounds nuw %struct._priv_exr_part_t, ptr %68, i32 0, i32 1
  %70 = load i32, ptr %69, align 4, !tbaa !71
  %71 = icmp eq i32 %70, 2
  br i1 %71, label %72, label %73

72:                                               ; preds = %67
  store ptr @.str.52, ptr %6, align 8, !tbaa !68
  br label %80

73:                                               ; preds = %67
  %74 = load ptr, ptr %5, align 8, !tbaa !8
  %75 = getelementptr inbounds nuw %struct._priv_exr_part_t, ptr %74, i32 0, i32 1
  %76 = load i32, ptr %75, align 4, !tbaa !71
  %77 = icmp eq i32 %76, 3
  br i1 %77, label %78, label %79

78:                                               ; preds = %73
  store ptr @.str.53, ptr %6, align 8, !tbaa !68
  br label %79

79:                                               ; preds = %78, %73
  br label %80

80:                                               ; preds = %79, %72
  br label %81

81:                                               ; preds = %80, %66
  br label %82

82:                                               ; preds = %81, %60
  %83 = load ptr, ptr %6, align 8, !tbaa !68
  %84 = icmp ne ptr %83, null
  br i1 %84, label %85, label %141

85:                                               ; preds = %82
  %86 = load ptr, ptr %5, align 8, !tbaa !8
  %87 = getelementptr inbounds nuw %struct._priv_exr_part_t, ptr %86, i32 0, i32 13
  %88 = load ptr, ptr %87, align 8, !tbaa !45
  %89 = getelementptr inbounds nuw %struct.exr_attribute_t, ptr %88, i32 0, i32 6
  %90 = load ptr, ptr %89, align 8, !tbaa !27
  %91 = getelementptr inbounds nuw %struct.exr_attr_string_t, ptr %90, i32 0, i32 2
  %92 = load ptr, ptr %91, align 8, !tbaa !72
  %93 = load ptr, ptr %6, align 8, !tbaa !68
  %94 = call i32 @strcmp(ptr noundef %92, ptr noundef %93) #8
  %95 = icmp ne i32 0, %94
  br i1 %95, label %96, label %141

96:                                               ; preds = %85
  %97 = load ptr, ptr %4, align 8, !tbaa !3
  %98 = getelementptr inbounds nuw %struct._priv_exr_context_t, ptr %97, i32 0, i32 0
  %99 = load i8, ptr %98, align 8, !tbaa !73
  %100 = zext i8 %99 to i32
  %101 = icmp eq i32 %100, 1
  br i1 %101, label %102, label %103

102:                                              ; preds = %96
  store i32 14, ptr %3, align 4
  store i32 1, ptr %8, align 4
  br label %142

103:                                              ; preds = %96
  %104 = load ptr, ptr %4, align 8, !tbaa !3
  %105 = getelementptr inbounds nuw %struct._priv_exr_context_t, ptr %104, i32 0, i32 6
  %106 = load i8, ptr %105, align 2, !tbaa !10
  %107 = icmp ne i8 %106, 0
  br i1 %107, label %108, label %122

108:                                              ; preds = %103
  %109 = load ptr, ptr %4, align 8, !tbaa !3
  %110 = getelementptr inbounds nuw %struct._priv_exr_context_t, ptr %109, i32 0, i32 14
  %111 = load ptr, ptr %110, align 8, !tbaa !29
  %112 = load ptr, ptr %4, align 8, !tbaa !3
  %113 = load ptr, ptr %6, align 8, !tbaa !68
  %114 = load ptr, ptr %5, align 8, !tbaa !8
  %115 = getelementptr inbounds nuw %struct._priv_exr_part_t, ptr %114, i32 0, i32 13
  %116 = load ptr, ptr %115, align 8, !tbaa !45
  %117 = getelementptr inbounds nuw %struct.exr_attribute_t, ptr %116, i32 0, i32 6
  %118 = load ptr, ptr %117, align 8, !tbaa !27
  %119 = getelementptr inbounds nuw %struct.exr_attr_string_t, ptr %118, i32 0, i32 2
  %120 = load ptr, ptr %119, align 8, !tbaa !72
  %121 = call i32 (ptr, i32, ptr, ...) %111(ptr noundef %112, i32 noundef 14, ptr noundef @.str.54, ptr noundef %113, ptr noundef %120)
  store i32 %121, ptr %3, align 4
  store i32 1, ptr %8, align 4
  br label %142

122:                                              ; preds = %103
  %123 = load ptr, ptr %4, align 8, !tbaa !3
  %124 = load ptr, ptr %5, align 8, !tbaa !8
  %125 = getelementptr inbounds nuw %struct._priv_exr_part_t, ptr %124, i32 0, i32 13
  %126 = load ptr, ptr %125, align 8, !tbaa !45
  %127 = getelementptr inbounds nuw %struct.exr_attribute_t, ptr %126, i32 0, i32 6
  %128 = load ptr, ptr %127, align 8, !tbaa !27
  %129 = load ptr, ptr %6, align 8, !tbaa !68
  %130 = call i32 @exr_attr_string_set(ptr noundef %123, ptr noundef %128, ptr noundef %129)
  store i32 %130, ptr %7, align 4, !tbaa !25
  %131 = load i32, ptr %7, align 4, !tbaa !25
  %132 = icmp ne i32 %131, 0
  br i1 %132, label %133, label %139

133:                                              ; preds = %122
  %134 = load ptr, ptr %4, align 8, !tbaa !3
  %135 = getelementptr inbounds nuw %struct._priv_exr_context_t, ptr %134, i32 0, i32 14
  %136 = load ptr, ptr %135, align 8, !tbaa !29
  %137 = load ptr, ptr %4, align 8, !tbaa !3
  %138 = call i32 (ptr, i32, ptr, ...) %136(ptr noundef %137, i32 noundef 14, ptr noundef @.str.55)
  store i32 %138, ptr %3, align 4
  store i32 1, ptr %8, align 4
  br label %142

139:                                              ; preds = %122
  br label %140

140:                                              ; preds = %139
  br label %141

141:                                              ; preds = %140, %85, %82
  store i32 0, ptr %8, align 4
  br label %142

142:                                              ; preds = %141, %133, %108, %102, %47, %29
  call void @llvm.lifetime.end.p0(i64 4, ptr %7) #7
  call void @llvm.lifetime.end.p0(i64 8, ptr %6) #7
  %143 = load i32, ptr %8, align 4
  switch i32 %143, label %159 [
    i32 0, label %144
    i32 1, label %157
  ]

144:                                              ; preds = %142
  br label %145

145:                                              ; preds = %144, %2
  %146 = load ptr, ptr %5, align 8, !tbaa !8
  %147 = getelementptr inbounds nuw %struct._priv_exr_part_t, ptr %146, i32 0, i32 1
  %148 = load i32, ptr %147, align 4, !tbaa !71
  %149 = icmp eq i32 %148, 4
  br i1 %149, label %150, label %156

150:                                              ; preds = %145
  %151 = load ptr, ptr %4, align 8, !tbaa !3
  %152 = getelementptr inbounds nuw %struct._priv_exr_context_t, ptr %151, i32 0, i32 14
  %153 = load ptr, ptr %152, align 8, !tbaa !29
  %154 = load ptr, ptr %4, align 8, !tbaa !3
  %155 = call i32 (ptr, i32, ptr, ...) %153(ptr noundef %154, i32 noundef 14, ptr noundef @.str.56)
  store i32 %155, ptr %3, align 4
  br label %157

156:                                              ; preds = %145
  store i32 0, ptr %3, align 4
  br label %157

157:                                              ; preds = %156, %150, %142
  %158 = load i32, ptr %3, align 4
  ret i32 %158

159:                                              ; preds = %142
  unreachable
}