; Function Attrs: nounwind uwtable
define internal fastcc i32 @validate_part_type(ptr noundef %0, ptr noundef captures(none) %1) unnamed_addr #0 {
  %3 = getelementptr inbounds nuw i8, ptr %1, i64 112
  %4 = load ptr, ptr %3, align 8, !tbaa !40
  %.not = icmp eq ptr %4, null
  br i1 %.not, label %53, label %5

5:                                                ; preds = %2
  %6 = getelementptr inbounds nuw i8, ptr %0, i64 3
  %7 = load i8, ptr %6, align 1, !tbaa !57
  %.not37 = icmp eq i8 %7, 0
  br i1 %.not37, label %29, label %8

8:                                                ; preds = %5
  %9 = getelementptr inbounds nuw i8, ptr %0, i64 5
  %10 = load i8, ptr %9, align 1, !tbaa !37
  %.not38 = icmp eq i8 %10, 0
  br i1 %.not38, label %11, label %15

11:                                               ; preds = %8
  %12 = getelementptr inbounds nuw i8, ptr %0, i64 196
  %13 = load i32, ptr %12, align 4, !tbaa !58
  %14 = icmp sgt i32 %13, 1
  br i1 %14, label %15, label %19

15:                                               ; preds = %11, %8
  %16 = getelementptr inbounds nuw i8, ptr %0, i64 72
  %17 = load ptr, ptr %16, align 8, !tbaa !23
  %18 = tail call i32 (ptr, i32, ptr, ...) %17(ptr noundef nonnull %0, i32 noundef 14, ptr noundef nonnull @.str.48) #7
  br label %.thread49

19:                                               ; preds = %11
  %20 = getelementptr inbounds nuw i8, ptr %1, i64 4
  %21 = load i32, ptr %20, align 4, !tbaa !59
  %.not39 = icmp eq i32 %21, 1
  br i1 %.not39, label %.thread, label %22

22:                                               ; preds = %19
  store i32 1, ptr %20, align 4, !tbaa !59
  %23 = getelementptr inbounds nuw i8, ptr %0, i64 6
  %24 = load i8, ptr %23, align 2, !tbaa !3
  %.not40 = icmp eq i8 %24, 0
  br i1 %.not40, label %.thread, label %25

25:                                               ; preds = %22
  %26 = getelementptr inbounds nuw i8, ptr %0, i64 72
  %27 = load ptr, ptr %26, align 8, !tbaa !23
  %28 = tail call i32 (ptr, i32, ptr, ...) %27(ptr noundef nonnull %0, i32 noundef 14, ptr noundef nonnull @.str.49) #7
  br label %.thread49

29:                                               ; preds = %5
  %.phi.trans.insert = getelementptr inbounds nuw i8, ptr %1, i64 4
  %.pre = load i32, ptr %.phi.trans.insert, align 4, !tbaa !59
  %30 = icmp ult i32 %.pre, 4
  br i1 %30, label %switch.lookup, label %53

switch.lookup:                                    ; preds = %29
  %31 = zext nneg i32 %.pre to i64
  %switch.gep = getelementptr inbounds nuw [4 x ptr], ptr @switch.table.validate_part_type, i64 0, i64 %31
  %switch.load = load ptr, ptr %switch.gep, align 8
  br label %.thread

.thread:                                          ; preds = %19, %22, %switch.lookup
  %.035.ph = phi ptr [ %switch.load, %switch.lookup ], [ @.str.51, %22 ], [ @.str.51, %19 ]
  %32 = getelementptr inbounds nuw i8, ptr %4, i64 24
  %33 = load ptr, ptr %32, align 8, !tbaa !27
  %34 = getelementptr inbounds nuw i8, ptr %33, i64 8
  %35 = load ptr, ptr %34, align 8, !tbaa !60
  %36 = tail call i32 @strcmp(ptr noundef nonnull dereferenceable(1) %35, ptr noundef nonnull dereferenceable(1) %.035.ph) #8
  %.not42 = icmp eq i32 %36, 0
  br i1 %.not42, label %53, label %37

37:                                               ; preds = %.thread
  %38 = load i8, ptr %0, align 8, !tbaa !61
  %39 = icmp eq i8 %38, 1
  br i1 %39, label %.thread49, label %40

40:                                               ; preds = %37
  %41 = getelementptr inbounds nuw i8, ptr %0, i64 6
  %42 = load i8, ptr %41, align 2, !tbaa !3
  %.not43 = icmp eq i8 %42, 0
  br i1 %.not43, label %47, label %43

43:                                               ; preds = %40
  %44 = getelementptr inbounds nuw i8, ptr %0, i64 72
  %45 = load ptr, ptr %44, align 8, !tbaa !23
  %46 = tail call i32 (ptr, i32, ptr, ...) %45(ptr noundef nonnull %0, i32 noundef 14, ptr noundef nonnull @.str.54, ptr noundef nonnull %.035.ph, ptr noundef nonnull %35) #7
  br label %.thread49

47:                                               ; preds = %40
  %48 = tail call i32 @exr_attr_string_set(ptr noundef nonnull %0, ptr noundef nonnull %33, ptr noundef nonnull %.035.ph) #7
  %.not44 = icmp eq i32 %48, 0
  br i1 %.not44, label %53, label %49

49:                                               ; preds = %47
  %50 = getelementptr inbounds nuw i8, ptr %0, i64 72
  %51 = load ptr, ptr %50, align 8, !tbaa !23
  %52 = tail call i32 (ptr, i32, ptr, ...) %51(ptr noundef nonnull %0, i32 noundef 14, ptr noundef nonnull @.str.55) #7
  br label %.thread49

53:                                               ; preds = %29, %47, %.thread, %2
  %54 = getelementptr inbounds nuw i8, ptr %1, i64 4
  %55 = load i32, ptr %54, align 4, !tbaa !59
  %56 = icmp eq i32 %55, 4
  br i1 %56, label %57, label %.thread49

57:                                               ; preds = %53
  %58 = getelementptr inbounds nuw i8, ptr %0, i64 72
  %59 = load ptr, ptr %58, align 8, !tbaa !23
  %60 = tail call i32 (ptr, i32, ptr, ...) %59(ptr noundef %0, i32 noundef 14, ptr noundef nonnull @.str.56) #7
  br label %.thread49

.thread49:                                        ; preds = %37, %49, %43, %25, %15, %53, %57
  %.1 = phi i32 [ %60, %57 ], [ 0, %53 ], [ 14, %37 ], [ %52, %49 ], [ %46, %43 ], [ %28, %25 ], [ %18, %15 ]
  ret i32 %.1
}